target datalayout = "e-m:e-p270:32:32-p271:32:32-p272:64:64-i64:64-i128:128-f80:128-n8:16:32:64-S128"
target triple = "x86_64-pc-linux-gnu"

%struct.packet_provider_data = type { ptr, ptr, ptr, ptr, ptr, ptr }
%struct._frame_data = type <{ i32, i32, i32, i32, i32, [4 x i8], i64, ptr, ptr, ptr, i8, i16, [5 x i8], %struct.nstime_t, %struct.nstime_t, i32, i32 }>
%struct.nstime_t = type { i64, i32 }

; Function Attrs: null_pointer_is_valid sspstrong uwtable
define hidden ptr @cap_file_provider_get_frame_ts(ptr noundef %0, i32 noundef %1) #0 {
  %3 = alloca ptr, align 8
  %4 = alloca i32, align 4
  %5 = alloca ptr, align 8
  store ptr %0, ptr %3, align 8
  store i32 %1, ptr %4, align 4
  call void @llvm.lifetime.start.p0(i64 8, ptr %5) #4
  store ptr null, ptr %5, align 8
  %6 = load ptr, ptr %3, align 8
  %7 = getelementptr inbounds nuw %struct.packet_provider_data, ptr %6, i32 0, i32 1
  %8 = load ptr, ptr %7, align 8
  %9 = icmp ne ptr %8, null
  br i1 %9, label %10, label %22

10:                                               ; preds = %2
  %11 = load ptr, ptr %3, align 8
  %12 = getelementptr inbounds nuw %struct.packet_provider_data, ptr %11, i32 0, i32 1
  %13 = load ptr, ptr %12, align 8
  %14 = getelementptr inbounds nuw %struct._frame_data, ptr %13, i32 0, i32 0
  %15 = load i32, ptr %14, align 8
  %16 = load i32, ptr %4, align 4
  %17 = icmp eq i32 %15, %16
  br i1 %17, label %18, label %22

18:                                               ; preds = %10
  %19 = load ptr, ptr %3, align 8
  %20 = getelementptr inbounds nuw %struct.packet_provider_data, ptr %19, i32 0, i32 1
  %21 = load ptr, ptr %20, align 8
  store ptr %21, ptr %5, align 8
  br label %70

22:                                               ; preds = %10, %2
  %23 = load ptr, ptr %3, align 8
  %24 = getelementptr inbounds nuw %struct.packet_provider_data, ptr %23, i32 0, i32 2
  %25 = load ptr, ptr %24, align 8
  %26 = icmp ne ptr %25, null
  br i1 %26, label %27, label %39

27:                                               ; preds = %22
  %28 = load ptr, ptr %3, align 8
  %29 = getelementptr inbounds nuw %struct.packet_provider_data, ptr %28, i32 0, i32 2
  %30 = load ptr, ptr %29, align 8
  %31 = getelementptr inbounds nuw %struct._frame_data, ptr %30, i32 0, i32 0
  %32 = load i32, ptr %31, align 8
  %33 = load i32, ptr %4, align 4
  %34 = icmp eq i32 %32, %33
  br i1 %34, label %35, label %39

35:                                               ; preds = %27
  %36 = load ptr, ptr %3, align 8
  %37 = getelementptr inbounds nuw %struct.packet_provider_data, ptr %36, i32 0, i32 2
  %38 = load ptr, ptr %37, align 8
  store ptr %38, ptr %5, align 8
  br label %69

39:                                               ; preds = %27, %22
  %40 = load ptr, ptr %3, align 8
  %41 = getelementptr inbounds nuw %struct.packet_provider_data, ptr %40, i32 0, i32 3
  %42 = load ptr, ptr %41, align 8
  %43 = icmp ne ptr %42, null
  br i1 %43, label %44, label %56

44:                                               ; preds = %39
  %45 = load ptr, ptr %3, align 8
  %46 = getelementptr inbounds nuw %struct.packet_provider_data, ptr %45, i32 0, i32 3
  %47 = load ptr, ptr %46, align 8
  %48 = getelementptr inbounds nuw %struct._frame_data, ptr %47, i32 0, i32 0
  %49 = load i32, ptr %48, align 8
  %50 = load i32, ptr %4, align 4
  %51 = icmp eq i32 %49, %50
  br i1 %51, label %52, label %56

52:                                               ; preds = %44
  %53 = load ptr, ptr %3, align 8
  %54 = getelementptr inbounds nuw %struct.packet_provider_data, ptr %53, i32 0, i32 3
  %55 = load ptr, ptr %54, align 8
  store ptr %55, ptr %5, align 8
  br label %68

56:                                               ; preds = %44, %39
  %57 = load ptr, ptr %3, align 8
  %58 = getelementptr inbounds nuw %struct.packet_provider_data, ptr %57, i32 0, i32 4
  %59 = load ptr, ptr %58, align 8
  %60 = icmp ne ptr %59, null
  br i1 %60, label %61, label %67

61:                                               ; preds = %56
  %62 = load ptr, ptr %3, align 8
  %63 = getelementptr inbounds nuw %struct.packet_provider_data, ptr %62, i32 0, i32 4
  %64 = load ptr, ptr %63, align 8
  %65 = load i32, ptr %4, align 4
  %66 = call ptr @frame_data_sequence_find(ptr noundef %64, i32 noundef %65)
  store ptr %66, ptr %5, align 8
  br label %67

67:                                               ; preds = %61, %56
  br label %68

68:                                               ; preds = %67, %52
  br label %69

69:                                               ; preds = %68, %35
  br label %70

70:                                               ; preds = %69, %18
  %71 = load ptr, ptr %5, align 8
  %72 = icmp ne ptr %71, null
  br i1 %72, label %73, label %84

73:                                               ; preds = %70
  %74 = load ptr, ptr %5, align 8
  %75 = getelementptr inbounds nuw %struct._frame_data, ptr %74, i32 0, i32 11
  %76 = load i16, ptr %75, align 1
  %77 = lshr i16 %76, 7
  %78 = and i16 %77, 1
  %79 = zext i16 %78 to i32
  %80 = icmp ne i32 %79, 0
  br i1 %80, label %81, label %84

81:                                               ; preds = %73
  %82 = load ptr, ptr %5, align 8
  %83 = getelementptr inbounds nuw %struct._frame_data, ptr %82, i32 0, i32 13
  br label %85

84:                                               ; preds = %73, %70
  br label %85

85:                                               ; preds = %84, %81
  %86 = phi ptr [ %83, %81 ], [ null, %84 ]
  call void @llvm.lifetime.end.p0(i64 8, ptr %5) #4
  ret ptr %86
}