; Function Attrs: null_pointer_is_valid sspstrong uwtable
define hidden ptr @cap_file_provider_get_frame_ts(ptr noundef readonly captures(none) %0, i32 noundef %1) local_unnamed_addr #0 {
  %3 = getelementptr inbounds nuw i8, ptr %0, i64 8
  %4 = load ptr, ptr %3, align 8
  %.not = icmp eq ptr %4, null
  br i1 %.not, label %8, label %5

5:                                                ; preds = %2
  %6 = load i32, ptr %4, align 8
  %7 = icmp eq i32 %6, %1
  br i1 %7, label %.thread, label %8

8:                                                ; preds = %5, %2
  %9 = getelementptr inbounds nuw i8, ptr %0, i64 16
  %10 = load ptr, ptr %9, align 8
  %.not21 = icmp eq ptr %10, null
  br i1 %.not21, label %14, label %11

11:                                               ; preds = %8
  %12 = load i32, ptr %10, align 8
  %13 = icmp eq i32 %12, %1
  br i1 %13, label %.thread, label %14

14:                                               ; preds = %11, %8
  %15 = getelementptr inbounds nuw i8, ptr %0, i64 24
  %16 = load ptr, ptr %15, align 8
  %.not22 = icmp eq ptr %16, null
  br i1 %.not22, label %20, label %17

17:                                               ; preds = %14
  %18 = load i32, ptr %16, align 8
  %19 = icmp eq i32 %18, %1
  br i1 %19, label %.thread, label %20

20:                                               ; preds = %17, %14
  %21 = getelementptr inbounds nuw i8, ptr %0, i64 32
  %22 = load ptr, ptr %21, align 8
  %.not23 = icmp eq ptr %22, null
  br i1 %.not23, label %.thread29, label %23

23:                                               ; preds = %20
  %24 = tail call ptr @frame_data_sequence_find(ptr noundef nonnull %22, i32 noundef %1)
  %.not24 = icmp eq ptr %24, null
  br i1 %.not24, label %.thread29, label %.thread

.thread:                                          ; preds = %17, %11, %5, %23
  %.028 = phi ptr [ %24, %23 ], [ %16, %17 ], [ %10, %11 ], [ %4, %5 ]
  %25 = getelementptr inbounds nuw i8, ptr %.028, i64 57
  %26 = load i16, ptr %25, align 1
  %27 = and i16 %26, 128
  %.not25 = icmp eq i16 %27, 0
  %28 = getelementptr inbounds nuw i8, ptr %.028, i64 64
  %spec.select = select i1 %.not25, ptr null, ptr %28
  br label %.thread29

.thread29:                                        ; preds = %20, %.thread, %23
  %29 = phi ptr [ null, %23 ], [ %spec.select, %.thread ], [ null, %20 ]
  ret ptr %29
}